target datalayout = "e-m:e-p270:32:32-p271:32:32-p272:64:64-i64:64-i128:128-f80:128-n8:16:32:64-S128"
target triple = "x86_64-pc-linux-gnu"

%"class.std::__cxx11::basic_string" = type { %"struct.std::__cxx11::basic_string<char>::_Alloc_hider", i64, %union.anon }
%"struct.std::__cxx11::basic_string<char>::_Alloc_hider" = type { ptr }
%union.anon = type { i64, [8 x i8] }
%"class.std::allocator" = type { i8 }
%"class.std::initializer_list.79" = type { ptr, i64 }

@_ZN10open_spiel12crazy_eights12_GLOBAL__N_19kSuitCharE = internal constant [5 x i8] c"CDHS\00", align 1
@_ZN10open_spiel12crazy_eights12_GLOBAL__N_19kRankCharE = internal constant [14 x i8] c"23456789TJQKA\00", align 1
@.str.20 = private unnamed_addr constant [144 x i8] c"generated/home/dtcxzyw/WorkSpace/Projects/compilers/llvm-opt-benchmark/bench/openspiel/open_spiel/open_spiel/games/crazy_eights/crazy_eights.cc\00", align 1
@.str.21 = private unnamed_addr constant [2 x i8] c":\00", align 1
@.str.22 = private unnamed_addr constant [2 x i8] c" \00", align 1
@.str.25 = private unnamed_addr constant [4 x i8] c" = \00", align 1
@.str.35 = private unnamed_addr constant [7 x i8] c", 0 = \00", align 1
@.str.37 = private unnamed_addr constant [15 x i8] c", kNumCards = \00", align 1
@.str.70 = private unnamed_addr constant [12 x i8] c"action >= 0\00", align 1
@.str.71 = private unnamed_addr constant [8 x i8] c"\0Aaction\00", align 1
@.str.96 = private unnamed_addr constant [19 x i8] c"action < kNumCards\00", align 1

; Function Attrs: mustprogress uwtable
define internal void @_ZN10open_spiel12crazy_eights12_GLOBAL__N_110GetCardStrB5cxx11Ei(ptr dead_on_unwind noalias writable sret(%"class.std::__cxx11::basic_string") align 8 %0, i32 noundef %1) #4 personality ptr @__gxx_personality_v0 {
  %3 = alloca ptr, align 8
  %4 = alloca i32, align 4
  %5 = alloca i32, align 4
  %6 = alloca i32, align 4
  %7 = alloca %"class.std::__cxx11::basic_string", align 8
  %8 = alloca i32, align 4
  %9 = alloca ptr, align 8
  %10 = alloca i32, align 4
  %11 = alloca i32, align 4
  %12 = alloca i32, align 4
  %13 = alloca %"class.std::__cxx11::basic_string", align 8
  %14 = alloca i32, align 4
  %15 = alloca i32, align 4
  %16 = alloca i32, align 4
  %17 = alloca %"class.std::initializer_list.79", align 8
  %18 = alloca [2 x i8], align 1
  %19 = alloca %"class.std::allocator", align 1
  store ptr %0, ptr %3, align 8
  store i32 %1, ptr %4, align 4
  br label %20

20:                                               ; preds = %2
  %21 = load i32, ptr %4, align 4
  store i32 %21, ptr %5, align 4
  store i32 0, ptr %6, align 4
  %22 = load i32, ptr %5, align 4
  %23 = load i32, ptr %6, align 4
  %24 = icmp sge i32 %22, %23
  br i1 %24, label %31, label %25

25:                                               ; preds = %20
  store i32 89, ptr %8, align 4
  call void @_ZN10open_spiel8internal11SpielStrCatIJRA144_KcRA2_S2_iS6_RA12_S2_RA8_S2_RA4_S2_RiRA7_S2_SD_EEENSt7__cxx1112basic_stringIcSt11char_traitsIcESaIcEEEDpOT_(ptr dead_on_unwind writable sret(%"class.std::__cxx11::basic_string") align 8 %7, ptr noundef nonnull align 1 dereferenceable(144) @.str.20, ptr noundef nonnull align 1 dereferenceable(2) @.str.21, ptr noundef nonnull align 4 dereferenceable(4) %8, ptr noundef nonnull align 1 dereferenceable(2) @.str.22, ptr noundef nonnull align 1 dereferenceable(12) @.str.70, ptr noundef nonnull align 1 dereferenceable(8) @.str.71, ptr noundef nonnull align 1 dereferenceable(4) @.str.25, ptr noundef nonnull align 4 dereferenceable(4) %5, ptr noundef nonnull align 1 dereferenceable(7) @.str.35, ptr noundef nonnull align 4 dereferenceable(4) %6)
  invoke void @_ZN10open_spiel15SpielFatalErrorERKNSt7__cxx1112basic_stringIcSt11char_traitsIcESaIcEEE(ptr noundef nonnull align 8 dereferenceable(32) %7) #16
          to label %26 unwind label %27

26:                                               ; preds = %25
  unreachable

27:                                               ; preds = %25
  %28 = landingpad { ptr, i32 }
          cleanup
  %29 = extractvalue { ptr, i32 } %28, 0
  store ptr %29, ptr %9, align 8
  %30 = extractvalue { ptr, i32 } %28, 1
  store i32 %30, ptr %10, align 4
  call void @_ZNSt7__cxx1112basic_stringIcSt11char_traitsIcESaIcEED1Ev(ptr noundef nonnull align 8 dereferenceable(32) %7) #3
  br label %70

31:                                               ; preds = %20
  br label %32

32:                                               ; preds = %31
  br label %33

33:                                               ; preds = %32
  %34 = load i32, ptr %4, align 4
  store i32 %34, ptr %11, align 4
  store i32 52, ptr %12, align 4
  %35 = load i32, ptr %11, align 4
  %36 = load i32, ptr %12, align 4
  %37 = icmp slt i32 %35, %36
  br i1 %37, label %44, label %38

38:                                               ; preds = %33
  store i32 90, ptr %14, align 4
  call void @_ZN10open_spiel8internal11SpielStrCatIJRA144_KcRA2_S2_iS6_RA19_S2_RA8_S2_RA4_S2_RiRA15_S2_SD_EEENSt7__cxx1112basic_stringIcSt11char_traitsIcESaIcEEEDpOT_(ptr dead_on_unwind writable sret(%"class.std::__cxx11::basic_string") align 8 %13, ptr noundef nonnull align 1 dereferenceable(144) @.str.20, ptr noundef nonnull align 1 dereferenceable(2) @.str.21, ptr noundef nonnull align 4 dereferenceable(4) %14, ptr noundef nonnull align 1 dereferenceable(2) @.str.22, ptr noundef nonnull align 1 dereferenceable(19) @.str.96, ptr noundef nonnull align 1 dereferenceable(8) @.str.71, ptr noundef nonnull align 1 dereferenceable(4) @.str.25, ptr noundef nonnull align 4 dereferenceable(4) %11, ptr noundef nonnull align 1 dereferenceable(15) @.str.37, ptr noundef nonnull align 4 dereferenceable(4) %12)
  invoke void @_ZN10open_spiel15SpielFatalErrorERKNSt7__cxx1112basic_stringIcSt11char_traitsIcESaIcEEE(ptr noundef nonnull align 8 dereferenceable(32) %13) #16
          to label %39 unwind label %40

39:                                               ; preds = %38
  unreachable

40:                                               ; preds = %38
  %41 = landingpad { ptr, i32 }
          cleanup
  %42 = extractvalue { ptr, i32 } %41, 0
  store ptr %42, ptr %9, align 8
  %43 = extractvalue { ptr, i32 } %41, 1
  store i32 %43, ptr %10, align 4
  call void @_ZNSt7__cxx1112basic_stringIcSt11char_traitsIcESaIcEED1Ev(ptr noundef nonnull align 8 dereferenceable(32) %13) #3
  br label %70

44:                                               ; preds = %33
  br label %45

45:                                               ; preds = %44
  %46 = load i32, ptr %4, align 4
  %47 = call noundef i32 @_ZN10open_spiel12crazy_eights12_GLOBAL__N_17GetRankEi(i32 noundef %46)
  store i32 %47, ptr %15, align 4
  %48 = load i32, ptr %4, align 4
  %49 = call noundef i32 @_ZN10open_spiel12crazy_eights12_GLOBAL__N_17GetSuitEi(i32 noundef %48)
  store i32 %49, ptr %16, align 4
  %50 = load i32, ptr %16, align 4
  %51 = sext i32 %50 to i64
  %52 = getelementptr inbounds [5 x i8], ptr @_ZN10open_spiel12crazy_eights12_GLOBAL__N_19kSuitCharE, i64 0, i64 %51
  %53 = load i8, ptr %52, align 1
  store i8 %53, ptr %18, align 1
  %54 = getelementptr inbounds i8, ptr %18, i64 1
  %55 = load i32, ptr %15, align 4
  %56 = sext i32 %55 to i64
  %57 = getelementptr inbounds [14 x i8], ptr @_ZN10open_spiel12crazy_eights12_GLOBAL__N_19kRankCharE, i64 0, i64 %56
  %58 = load i8, ptr %57, align 1
  store i8 %58, ptr %54, align 1
  %59 = getelementptr inbounds nuw %"class.std::initializer_list.79", ptr %17, i32 0, i32 0
  store ptr %18, ptr %59, align 8
  %60 = getelementptr inbounds nuw %"class.std::initializer_list.79", ptr %17, i32 0, i32 1
  store i64 2, ptr %60, align 8
  call void @_ZNSaIcEC1Ev(ptr noundef nonnull align 1 dereferenceable(1) %19) #3
  %61 = getelementptr inbounds nuw { ptr, i64 }, ptr %17, i32 0, i32 0
  %62 = load ptr, ptr %61, align 8
  %63 = getelementptr inbounds nuw { ptr, i64 }, ptr %17, i32 0, i32 1
  %64 = load i64, ptr %63, align 8
  invoke void @_ZNSt7__cxx1112basic_stringIcSt11char_traitsIcESaIcEEC1ESt16initializer_listIcERKS3_(ptr noundef nonnull align 8 dereferenceable(32) %0, ptr %62, i64 %64, ptr noundef nonnull align 1 dereferenceable(1) %19)
          to label %65 unwind label %66

65:                                               ; preds = %45
  call void @_ZNSaIcED1Ev(ptr noundef nonnull align 1 dereferenceable(1) %19) #3
  ret void

66:                                               ; preds = %45
  %67 = landingpad { ptr, i32 }
          cleanup
  %68 = extractvalue { ptr, i32 } %67, 0
  store ptr %68, ptr %9, align 8
  %69 = extractvalue { ptr, i32 } %67, 1
  store i32 %69, ptr %10, align 4
  call void @_ZNSaIcED1Ev(ptr noundef nonnull align 1 dereferenceable(1) %19) #3
  br label %70

70:                                               ; preds = %66, %40, %27
  %71 = load ptr, ptr %9, align 8
  %72 = load i32, ptr %10, align 4
  %73 = insertvalue { ptr, i32 } poison, ptr %71, 0
  %74 = insertvalue { ptr, i32 } %73, i32 %72, 1
  resume { ptr, i32 } %74
}