; Function Attrs: mustprogress uwtable
define internal fastcc void @_ZN10open_spiel12crazy_eights12_GLOBAL__N_110GetCardStrB5cxx11Ei(ptr dead_on_unwind noalias writable align 8 %0, i32 noundef %1) unnamed_addr #3 personality ptr @__gxx_personality_v0 {
  %3 = alloca i32, align 4
  %4 = alloca i32, align 4
  %5 = alloca %"class.std::__cxx11::basic_string", align 8
  %6 = alloca i32, align 4
  %7 = alloca i32, align 4
  %8 = alloca i32, align 4
  %9 = alloca %"class.std::__cxx11::basic_string", align 8
  %10 = alloca i32, align 4
  %11 = alloca [2 x i8], align 1
  %12 = alloca %"class.std::allocator", align 1
  store i32 %1, ptr %3, align 4
  store i32 0, ptr %4, align 4
  %13 = icmp sgt i32 %1, -1
  br i1 %13, label %18, label %14

14:                                               ; preds = %2
  store i32 89, ptr %6, align 4
  call void @_ZN10open_spiel8internal11SpielStrCatIJRA144_KcRA2_S2_iS6_RA12_S2_RA8_S2_RA4_S2_RiRA7_S2_SD_EEENSt7__cxx1112basic_stringIcSt11char_traitsIcESaIcEEEDpOT_(ptr dead_on_unwind nonnull writable sret(%"class.std::__cxx11::basic_string") align 8 %5, ptr noundef nonnull align 1 dereferenceable(144) @.str.20, ptr noundef nonnull align 1 dereferenceable(2) @.str.21, ptr noundef nonnull align 4 dereferenceable(4) %6, ptr noundef nonnull align 1 dereferenceable(2) @.str.22, ptr noundef nonnull align 1 dereferenceable(12) @.str.70, ptr noundef nonnull align 1 dereferenceable(8) @.str.71, ptr noundef nonnull align 1 dereferenceable(4) @.str.25, ptr noundef nonnull align 4 dereferenceable(4) %3, ptr noundef nonnull align 1 dereferenceable(7) @.str.35, ptr noundef nonnull align 4 dereferenceable(4) %4)
  invoke void @_ZN10open_spiel15SpielFatalErrorERKNSt7__cxx1112basic_stringIcSt11char_traitsIcESaIcEEE(ptr noundef nonnull align 8 dereferenceable(32) %5) #24
          to label %15 unwind label %16

15:                                               ; preds = %14
  unreachable

16:                                               ; preds = %14
  %17 = landingpad { ptr, i32 }
          cleanup
  call void @_ZNSt7__cxx1112basic_stringIcSt11char_traitsIcESaIcEED1Ev(ptr noundef nonnull align 8 dereferenceable(32) %5) #25
  br label %37

18:                                               ; preds = %2
  store i32 %1, ptr %7, align 4
  store i32 52, ptr %8, align 4
  %19 = icmp ult i32 %1, 52
  br i1 %19, label %24, label %20

20:                                               ; preds = %18
  store i32 90, ptr %10, align 4
  call void @_ZN10open_spiel8internal11SpielStrCatIJRA144_KcRA2_S2_iS6_RA19_S2_RA8_S2_RA4_S2_RiRA15_S2_SD_EEENSt7__cxx1112basic_stringIcSt11char_traitsIcESaIcEEEDpOT_(ptr dead_on_unwind nonnull writable sret(%"class.std::__cxx11::basic_string") align 8 %9, ptr noundef nonnull align 1 dereferenceable(144) @.str.20, ptr noundef nonnull align 1 dereferenceable(2) @.str.21, ptr noundef nonnull align 4 dereferenceable(4) %10, ptr noundef nonnull align 1 dereferenceable(2) @.str.22, ptr noundef nonnull align 1 dereferenceable(19) @.str.96, ptr noundef nonnull align 1 dereferenceable(8) @.str.71, ptr noundef nonnull align 1 dereferenceable(4) @.str.25, ptr noundef nonnull align 4 dereferenceable(4) %7, ptr noundef nonnull align 1 dereferenceable(15) @.str.37, ptr noundef nonnull align 4 dereferenceable(4) %8)
  invoke void @_ZN10open_spiel15SpielFatalErrorERKNSt7__cxx1112basic_stringIcSt11char_traitsIcESaIcEEE(ptr noundef nonnull align 8 dereferenceable(32) %9) #24
          to label %21 unwind label %22

21:                                               ; preds = %20
  unreachable

22:                                               ; preds = %20
  %23 = landingpad { ptr, i32 }
          cleanup
  call void @_ZNSt7__cxx1112basic_stringIcSt11char_traitsIcESaIcEED1Ev(ptr noundef nonnull align 8 dereferenceable(32) %9) #25
  br label %37

24:                                               ; preds = %18
  %25 = tail call fastcc noundef i32 @_ZN10open_spiel12crazy_eights12_GLOBAL__N_17GetRankEi(i32 noundef %1)
  %26 = tail call fastcc noundef i32 @_ZN10open_spiel12crazy_eights12_GLOBAL__N_17GetSuitEi(i32 noundef %1)
  %27 = zext nneg i32 %26 to i64
  %28 = getelementptr inbounds [5 x i8], ptr @_ZN10open_spiel12crazy_eights12_GLOBAL__N_19kSuitCharE, i64 0, i64 %27
  %29 = load i8, ptr %28, align 1
  store i8 %29, ptr %11, align 1
  %30 = getelementptr inbounds i8, ptr %11, i64 1
  %31 = zext nneg i32 %25 to i64
  %32 = getelementptr inbounds [14 x i8], ptr @_ZN10open_spiel12crazy_eights12_GLOBAL__N_19kRankCharE, i64 0, i64 %31
  %33 = load i8, ptr %32, align 1
  store i8 %33, ptr %30, align 1
  call void @_ZNSaIcEC1Ev(ptr noundef nonnull align 1 dereferenceable(1) %12) #25
  invoke void @_ZNSt7__cxx1112basic_stringIcSt11char_traitsIcESaIcEEC1ESt16initializer_listIcERKS3_(ptr noundef nonnull align 8 dereferenceable(32) %0, ptr nonnull %11, i64 2, ptr noundef nonnull align 1 dereferenceable(1) %12)
          to label %34 unwind label %35

34:                                               ; preds = %24
  call void @_ZNSaIcED1Ev(ptr noundef nonnull align 1 dereferenceable(1) %12) #25
  ret void

35:                                               ; preds = %24
  %36 = landingpad { ptr, i32 }
          cleanup
  call void @_ZNSaIcED1Ev(ptr noundef nonnull align 1 dereferenceable(1) %12) #25
  br label %37

37:                                               ; preds = %35, %22, %16
  %.pn = phi { ptr, i32 } [ %36, %35 ], [ %23, %22 ], [ %17, %16 ]
  resume { ptr, i32 } %.pn
}